; Function Attrs: nounwind null_pointer_is_valid sspstrong uwtable
define hidden noundef i32 @Dtd_PreParse_lex_destroy(ptr noundef captures(none) %0) local_unnamed_addr #14 {
  %2 = getelementptr inbounds nuw i8, ptr %0, i64 24
  %3 = getelementptr inbounds nuw i8, ptr %0, i64 40
  %4 = load ptr, ptr %3, align 8
  %.not22 = icmp eq ptr %4, null
  br i1 %.not22, label %.critedge, label %.lr.ph

.lr.ph:                                           ; preds = %1
  %5 = getelementptr inbounds nuw i8, ptr %0, i64 52
  %6 = getelementptr inbounds nuw i8, ptr %0, i64 64
  %7 = getelementptr inbounds nuw i8, ptr %0, i64 128
  %8 = getelementptr inbounds nuw i8, ptr %0, i64 8
  %9 = getelementptr inbounds nuw i8, ptr %0, i64 48
  %10 = getelementptr inbounds nuw i8, ptr %0, i64 80
  %11 = load i64, ptr %2, align 8
  %12 = getelementptr ptr, ptr %4, i64 %11
  %13 = load ptr, ptr %12, align 8
  %14 = icmp eq ptr %13, null
  br i1 %14, label %.critedge, label %.thread.i

.thread.i:                                        ; preds = %.lr.ph, %Dtd_PreParse_pop_buffer_state.exit
  %15 = phi ptr [ %59, %Dtd_PreParse_pop_buffer_state.exit ], [ %13, %.lr.ph ]
  %16 = phi ptr [ %58, %Dtd_PreParse_pop_buffer_state.exit ], [ %12, %.lr.ph ]
  store ptr null, ptr %16, align 8
  %17 = getelementptr inbounds nuw i8, ptr %15, i64 32
  %18 = load i32, ptr %17, align 8
  %.not13.i = icmp eq i32 %18, 0
  br i1 %.not13.i, label %Dtd_PreParse__delete_buffer.exit, label %19

19:                                               ; preds = %.thread.i
  %20 = getelementptr inbounds nuw i8, ptr %15, i64 8
  %21 = load ptr, ptr %20, align 8
  tail call void @free(ptr noundef %21) #27
  br label %Dtd_PreParse__delete_buffer.exit

Dtd_PreParse__delete_buffer.exit:                 ; preds = %.thread.i, %19
  tail call void @free(ptr noundef nonnull %15) #27
  %22 = load ptr, ptr %3, align 8
  %23 = load i64, ptr %2, align 8
  %24 = getelementptr ptr, ptr %22, i64 %23
  store ptr null, ptr %24, align 8
  %25 = load ptr, ptr %3, align 8
  %.not.i20 = icmp eq ptr %25, null
  br i1 %.not.i20, label %.critedge, label %26

26:                                               ; preds = %Dtd_PreParse__delete_buffer.exit
  %27 = load i64, ptr %2, align 8
  %28 = getelementptr ptr, ptr %25, i64 %27
  %29 = load ptr, ptr %28, align 8
  %.not20.i = icmp eq ptr %29, null
  br i1 %.not20.i, label %Dtd_PreParse_pop_buffer_state.exit, label %.thread.i.i

.thread.i.i:                                      ; preds = %26
  store ptr null, ptr %28, align 8
  %30 = getelementptr inbounds nuw i8, ptr %29, i64 32
  %31 = load i32, ptr %30, align 8
  %.not13.i.i = icmp eq i32 %31, 0
  br i1 %.not13.i.i, label %Dtd_PreParse__delete_buffer.exit.i, label %32

32:                                               ; preds = %.thread.i.i
  %33 = getelementptr inbounds nuw i8, ptr %29, i64 8
  %34 = load ptr, ptr %33, align 8
  tail call void @free(ptr noundef %34) #27
  br label %Dtd_PreParse__delete_buffer.exit.i

Dtd_PreParse__delete_buffer.exit.i:               ; preds = %32, %.thread.i.i
  tail call void @free(ptr noundef nonnull %29) #27
  %35 = load ptr, ptr %3, align 8
  %36 = load i64, ptr %2, align 8
  %37 = getelementptr ptr, ptr %35, i64 %36
  store ptr null, ptr %37, align 8
  %38 = load i64, ptr %2, align 8
  %.not21.i = icmp eq i64 %38, 0
  br i1 %.not21.i, label %41, label %39

39:                                               ; preds = %Dtd_PreParse__delete_buffer.exit.i
  %40 = add i64 %38, -1
  store i64 %40, ptr %2, align 8
  br label %41

41:                                               ; preds = %39, %Dtd_PreParse__delete_buffer.exit.i
  %42 = phi i64 [ %40, %39 ], [ 0, %Dtd_PreParse__delete_buffer.exit.i ]
  %43 = load ptr, ptr %3, align 8
  %.not22.i = icmp eq ptr %43, null
  br i1 %.not22.i, label %.critedge, label %44

44:                                               ; preds = %41
  %45 = getelementptr ptr, ptr %43, i64 %42
  %46 = load ptr, ptr %45, align 8
  %.not23.i = icmp eq ptr %46, null
  br i1 %.not23.i, label %Dtd_PreParse_pop_buffer_state.exit, label %47

47:                                               ; preds = %44
  %48 = getelementptr inbounds nuw i8, ptr %46, i64 28
  %49 = load i32, ptr %48, align 4
  store i32 %49, ptr %5, align 4
  %50 = load ptr, ptr %45, align 8
  %51 = getelementptr inbounds nuw i8, ptr %50, i64 16
  %52 = load ptr, ptr %51, align 8
  store ptr %52, ptr %6, align 8
  store ptr %52, ptr %7, align 8
  %53 = load ptr, ptr %45, align 8
  %54 = load ptr, ptr %53, align 8
  store ptr %54, ptr %8, align 8
  %55 = load i8, ptr %52, align 1
  store i8 %55, ptr %9, align 8
  store i32 1, ptr %10, align 8
  br label %Dtd_PreParse_pop_buffer_state.exit

Dtd_PreParse_pop_buffer_state.exit:               ; preds = %26, %44, %47
  %56 = phi ptr [ %25, %26 ], [ %43, %44 ], [ %43, %47 ]
  %57 = load i64, ptr %2, align 8
  %58 = getelementptr ptr, ptr %56, i64 %57
  %59 = load ptr, ptr %58, align 8
  %60 = icmp eq ptr %59, null
  br i1 %60, label %.critedge, label %.thread.i, !llvm.loop !16

.critedge:                                        ; preds = %Dtd_PreParse_pop_buffer_state.exit, %Dtd_PreParse__delete_buffer.exit, %41, %.lr.ph, %1
  %.lcssa = phi ptr [ null, %1 ], [ %4, %.lr.ph ], [ null, %41 ], [ null, %Dtd_PreParse__delete_buffer.exit ], [ %56, %Dtd_PreParse_pop_buffer_state.exit ]
  tail call void @free(ptr noundef %.lcssa) #27
  store ptr null, ptr %3, align 8
  %61 = getelementptr inbounds nuw i8, ptr %0, i64 96
  %62 = load ptr, ptr %61, align 8
  tail call void @free(ptr noundef %62) #27
  tail call void @free(ptr noundef %0) #27
  ret i32 0
}